target datalayout = "e-m:e-p270:32:32-p271:32:32-p272:64:64-i64:64-i128:128-f80:128-n8:16:32:64-S128"
target triple = "x86_64-pc-linux-gnu"

%struct.nstime_t = type { i64, i32 }

@hf_afp_dir_attribute = internal global i32 0, align 4
@hf_afp_did = internal global i32 0, align 4
@hf_afp_dir_offspring = internal global i32 0, align 4
@hf_afp_dir_OwnerID = internal global i32 0, align 4
@hf_afp_dir_GroupID = internal global i32 0, align 4
@hf_afp_creation_date = internal global i32 0, align 4
@hf_afp_modification_date = internal global i32 0, align 4
@hf_afp_backup_date = internal global i32 0, align 4
@hf_afp_finder_info = internal global i32 0, align 4
@hf_afp_short_name_offset = internal global i32 0, align 4
@hf_afp_file_id = internal global i32 0, align 4
@hf_afp_dir_ar = internal global i32 0, align 4
@ett_afp_dir_attribute = internal global i32 0, align 4
@ett_afp_dir_ar = internal global i32 0, align 4

; Function Attrs: null_pointer_is_valid sspstrong uwtable
define internal void @decode_access_rights(ptr noundef %0, ptr noundef %1, i32 noundef %2, i32 noundef %3) #1 {
  %5 = alloca ptr, align 8
  %6 = alloca ptr, align 8
  %7 = alloca i32, align 4
  %8 = alloca i32, align 4
  store ptr %0, ptr %5, align 8
  store ptr %1, ptr %6, align 8
  store i32 %2, ptr %7, align 4
  store i32 %3, ptr %8, align 4
  %9 = load ptr, ptr %5, align 8
  %10 = load ptr, ptr %6, align 8
  %11 = load i32, ptr %8, align 4
  %12 = load i32, ptr %7, align 4
  %13 = load i32, ptr @ett_afp_dir_ar, align 4
  %14 = call ptr @proto_tree_add_bitmask(ptr noundef %9, ptr noundef %10, i32 noundef %11, i32 noundef %12, i32 noundef %13, ptr noundef @decode_access_rights.rights, i32 noundef 0)
  ret void
}

; Function Attrs: null_pointer_is_valid sspstrong uwtable
define internal void @print_date(ptr noundef %0, i32 noundef %1, ptr noundef %2, i32 noundef %3) #1 {
  %5 = alloca ptr, align 8
  %6 = alloca i32, align 4
  %7 = alloca ptr, align 8
  %8 = alloca i32, align 4
  %9 = alloca i64, align 8
  %10 = alloca %struct.nstime_t, align 8
  store ptr %0, ptr %5, align 8
  store i32 %1, ptr %6, align 4
  store ptr %2, ptr %7, align 8
  store i32 %3, ptr %8, align 4
  call void @llvm.lifetime.start.p0(i64 8, ptr %9) #8
  %11 = load ptr, ptr %7, align 8
  %12 = load i32, ptr %8, align 4
  %13 = call i32 @tvb_get_ntohl(ptr noundef %11, i32 noundef %12)
  %14 = zext i32 %13 to i64
  store i64 %14, ptr %9, align 8
  call void @llvm.lifetime.start.p0(i64 16, ptr %10) #8
  %15 = load i64, ptr %9, align 8
  %16 = add i64 %15, 946684800
  %17 = getelementptr inbounds nuw %struct.nstime_t, ptr %10, i32 0, i32 0
  store i64 %16, ptr %17, align 8
  %18 = getelementptr inbounds nuw %struct.nstime_t, ptr %10, i32 0, i32 1
  store i32 0, ptr %18, align 8
  %19 = load ptr, ptr %5, align 8
  %20 = load i32, ptr %6, align 4
  %21 = load ptr, ptr %7, align 8
  %22 = load i32, ptr %8, align 4
  %23 = call ptr @proto_tree_add_time(ptr noundef %19, i32 noundef %20, ptr noundef %21, i32 noundef %22, i32 noundef 4, ptr noundef %10)
  call void @llvm.lifetime.end.p0(i64 16, ptr %10) #8
  call void @llvm.lifetime.end.p0(i64 8, ptr %9) #8
  ret void
}

; Function Attrs: null_pointer_is_valid sspstrong uwtable
define internal zeroext i16 @decode_dir_attribute(ptr noundef %0, ptr noundef %1, i32 noundef %2) #1 {
  %4 = alloca ptr, align 8
  %5 = alloca ptr, align 8
  %6 = alloca i32, align 4
  %7 = alloca i16, align 2
  store ptr %0, ptr %4, align 8
  store ptr %1, ptr %5, align 8
  store i32 %2, ptr %6, align 4
  call void @llvm.lifetime.start.p0(i64 2, ptr %7) #8
  %8 = load ptr, ptr %4, align 8
  %9 = load ptr, ptr %5, align 8
  %10 = load i32, ptr %6, align 4
  %11 = load i32, ptr @hf_afp_dir_attribute, align 4
  %12 = load i32, ptr @ett_afp_dir_attribute, align 4
  %13 = call ptr @proto_tree_add_bitmask(ptr noundef %8, ptr noundef %9, i32 noundef %10, i32 noundef %11, i32 noundef %12, ptr noundef @decode_dir_attribute.attributes, i32 noundef 0)
  %14 = load ptr, ptr %5, align 8
  %15 = load i32, ptr %6, align 4
  %16 = call zeroext i16 @tvb_get_ntohs(ptr noundef %14, i32 noundef %15)
  store i16 %16, ptr %7, align 2
  %17 = load i16, ptr %7, align 2
  call void @llvm.lifetime.end.p0(i64 2, ptr %7) #8
  ret i16 %17
}

; Function Attrs: null_pointer_is_valid sspstrong uwtable
define internal i32 @parse_dir_bitmap(ptr noundef %0, ptr noundef %1, i32 noundef %2, i16 noundef zeroext %3) #1 {
  %5 = alloca ptr, align 8
  %6 = alloca ptr, align 8
  %7 = alloca i32, align 4
  %8 = alloca i16, align 2
  %9 = alloca i32, align 4
  %10 = alloca i32, align 4
  %11 = alloca i32, align 4
  %12 = alloca i32, align 4
  store ptr %0, ptr %5, align 8
  store ptr %1, ptr %6, align 8
  store i32 %2, ptr %7, align 4
  store i16 %3, ptr %8, align 2
  call void @llvm.lifetime.start.p0(i64 4, ptr %9) #8
  store i32 0, ptr %9, align 4
  call void @llvm.lifetime.start.p0(i64 4, ptr %10) #8
  %13 = load i32, ptr %7, align 4
  store i32 %13, ptr %10, align 4
  %14 = load i16, ptr %8, align 2
  %15 = zext i16 %14 to i32
  %16 = and i32 %15, 1
  %17 = icmp ne i32 %16, 0
  br i1 %17, label %18, label %25

18:                                               ; preds = %4
  %19 = load ptr, ptr %5, align 8
  %20 = load ptr, ptr %6, align 8
  %21 = load i32, ptr %7, align 4
  %22 = call zeroext i16 @decode_dir_attribute(ptr noundef %19, ptr noundef %20, i32 noundef %21)
  %23 = load i32, ptr %7, align 4
  %24 = add i32 %23, 2
  store i32 %24, ptr %7, align 4
  br label %25

25:                                               ; preds = %18, %4
  %26 = load i16, ptr %8, align 2
  %27 = zext i16 %26 to i32
  %28 = and i32 %27, 2
  %29 = icmp ne i32 %28, 0
  br i1 %29, label %30, label %38

30:                                               ; preds = %25
  %31 = load ptr, ptr %5, align 8
  %32 = load i32, ptr @hf_afp_did, align 4
  %33 = load ptr, ptr %6, align 8
  %34 = load i32, ptr %7, align 4
  %35 = call ptr @proto_tree_add_item(ptr noundef %31, i32 noundef %32, ptr noundef %33, i32 noundef %34, i32 noundef 4, i32 noundef 0)
  %36 = load i32, ptr %7, align 4
  %37 = add i32 %36, 4
  store i32 %37, ptr %7, align 4
  br label %38

38:                                               ; preds = %30, %25
  %39 = load i16, ptr %8, align 2
  %40 = zext i16 %39 to i32
  %41 = and i32 %40, 4
  %42 = icmp ne i32 %41, 0
  br i1 %42, label %43, label %50

43:                                               ; preds = %38
  %44 = load ptr, ptr %5, align 8
  %45 = load i32, ptr @hf_afp_creation_date, align 4
  %46 = load ptr, ptr %6, align 8
  %47 = load i32, ptr %7, align 4
  call void @print_date(ptr noundef %44, i32 noundef %45, ptr noundef %46, i32 noundef %47)
  %48 = load i32, ptr %7, align 4
  %49 = add i32 %48, 4
  store i32 %49, ptr %7, align 4
  br label %50

50:                                               ; preds = %43, %38
  %51 = load i16, ptr %8, align 2
  %52 = zext i16 %51 to i32
  %53 = and i32 %52, 8
  %54 = icmp ne i32 %53, 0
  br i1 %54, label %55, label %62

55:                                               ; preds = %50
  %56 = load ptr, ptr %5, align 8
  %57 = load i32, ptr @hf_afp_modification_date, align 4
  %58 = load ptr, ptr %6, align 8
  %59 = load i32, ptr %7, align 4
  call void @print_date(ptr noundef %56, i32 noundef %57, ptr noundef %58, i32 noundef %59)
  %60 = load i32, ptr %7, align 4
  %61 = add i32 %60, 4
  store i32 %61, ptr %7, align 4
  br label %62

62:                                               ; preds = %55, %50
  %63 = load i16, ptr %8, align 2
  %64 = zext i16 %63 to i32
  %65 = and i32 %64, 16
  %66 = icmp ne i32 %65, 0
  br i1 %66, label %67, label %74

67:                                               ; preds = %62
  %68 = load ptr, ptr %5, align 8
  %69 = load i32, ptr @hf_afp_backup_date, align 4
  %70 = load ptr, ptr %6, align 8
  %71 = load i32, ptr %7, align 4
  call void @print_date(ptr noundef %68, i32 noundef %69, ptr noundef %70, i32 noundef %71)
  %72 = load i32, ptr %7, align 4
  %73 = add i32 %72, 4
  store i32 %73, ptr %7, align 4
  br label %74

74:                                               ; preds = %67, %62
  %75 = load i16, ptr %8, align 2
  %76 = zext i16 %75 to i32
  %77 = and i32 %76, 32
  %78 = icmp ne i32 %77, 0
  br i1 %78, label %79, label %87

79:                                               ; preds = %74
  %80 = load ptr, ptr %5, align 8
  %81 = load i32, ptr @hf_afp_finder_info, align 4
  %82 = load ptr, ptr %6, align 8
  %83 = load i32, ptr %7, align 4
  %84 = call ptr @proto_tree_add_item(ptr noundef %80, i32 noundef %81, ptr noundef %82, i32 noundef %83, i32 noundef 32, i32 noundef 0)
  %85 = load i32, ptr %7, align 4
  %86 = add i32 %85, 32
  store i32 %86, ptr %7, align 4
  br label %87

87:                                               ; preds = %79, %74
  %88 = load i16, ptr %8, align 2
  %89 = zext i16 %88 to i32
  %90 = and i32 %89, 64
  %91 = icmp ne i32 %90, 0
  br i1 %91, label %92, label %109

92:                                               ; preds = %87
  call void @llvm.lifetime.start.p0(i64 4, ptr %11) #8
  %93 = load ptr, ptr %5, align 8
  %94 = load ptr, ptr %6, align 8
  %95 = load i32, ptr %7, align 4
  %96 = load i32, ptr %10, align 4
  %97 = call i32 @parse_long_filename(ptr noundef %93, ptr noundef %94, i32 noundef %95, i32 noundef %96)
  store i32 %97, ptr %11, align 4
  %98 = load i32, ptr %11, align 4
  %99 = load i32, ptr %9, align 4
  %100 = icmp sgt i32 %98, %99
  br i1 %100, label %101, label %103

101:                                              ; preds = %92
  %102 = load i32, ptr %11, align 4
  br label %105

103:                                              ; preds = %92
  %104 = load i32, ptr %9, align 4
  br label %105

105:                                              ; preds = %103, %101
  %106 = phi i32 [ %102, %101 ], [ %104, %103 ]
  store i32 %106, ptr %9, align 4
  %107 = load i32, ptr %7, align 4
  %108 = add i32 %107, 2
  store i32 %108, ptr %7, align 4
  call void @llvm.lifetime.end.p0(i64 4, ptr %11) #8
  br label %109

109:                                              ; preds = %105, %87
  %110 = load i16, ptr %8, align 2
  %111 = zext i16 %110 to i32
  %112 = and i32 %111, 128
  %113 = icmp ne i32 %112, 0
  br i1 %113, label %114, label %122

114:                                              ; preds = %109
  %115 = load ptr, ptr %5, align 8
  %116 = load i32, ptr @hf_afp_short_name_offset, align 4
  %117 = load ptr, ptr %6, align 8
  %118 = load i32, ptr %7, align 4
  %119 = call ptr @proto_tree_add_item(ptr noundef %115, i32 noundef %116, ptr noundef %117, i32 noundef %118, i32 noundef 2, i32 noundef 0)
  %120 = load i32, ptr %7, align 4
  %121 = add i32 %120, 2
  store i32 %121, ptr %7, align 4
  br label %122

122:                                              ; preds = %114, %109
  %123 = load i16, ptr %8, align 2
  %124 = zext i16 %123 to i32
  %125 = and i32 %124, 256
  %126 = icmp ne i32 %125, 0
  br i1 %126, label %127, label %135

127:                                              ; preds = %122
  %128 = load ptr, ptr %5, align 8
  %129 = load i32, ptr @hf_afp_file_id, align 4
  %130 = load ptr, ptr %6, align 8
  %131 = load i32, ptr %7, align 4
  %132 = call ptr @proto_tree_add_item(ptr noundef %128, i32 noundef %129, ptr noundef %130, i32 noundef %131, i32 noundef 4, i32 noundef 0)
  %133 = load i32, ptr %7, align 4
  %134 = add i32 %133, 4
  store i32 %134, ptr %7, align 4
  br label %135

135:                                              ; preds = %127, %122
  %136 = load i16, ptr %8, align 2
  %137 = zext i16 %136 to i32
  %138 = and i32 %137, 512
  %139 = icmp ne i32 %138, 0
  br i1 %139, label %140, label %148

140:                                              ; preds = %135
  %141 = load ptr, ptr %5, align 8
  %142 = load i32, ptr @hf_afp_dir_offspring, align 4
  %143 = load ptr, ptr %6, align 8
  %144 = load i32, ptr %7, align 4
  %145 = call ptr @proto_tree_add_item(ptr noundef %141, i32 noundef %142, ptr noundef %143, i32 noundef %144, i32 noundef 2, i32 noundef 0)
  %146 = load i32, ptr %7, align 4
  %147 = add i32 %146, 2
  store i32 %147, ptr %7, align 4
  br label %148

148:                                              ; preds = %140, %135
  %149 = load i16, ptr %8, align 2
  %150 = zext i16 %149 to i32
  %151 = and i32 %150, 1024
  %152 = icmp ne i32 %151, 0
  br i1 %152, label %153, label %161

153:                                              ; preds = %148
  %154 = load ptr, ptr %5, align 8
  %155 = load i32, ptr @hf_afp_dir_OwnerID, align 4
  %156 = load ptr, ptr %6, align 8
  %157 = load i32, ptr %7, align 4
  %158 = call ptr @proto_tree_add_item(ptr noundef %154, i32 noundef %155, ptr noundef %156, i32 noundef %157, i32 noundef 4, i32 noundef 0)
  %159 = load i32, ptr %7, align 4
  %160 = add i32 %159, 4
  store i32 %160, ptr %7, align 4
  br label %161

161:                                              ; preds = %153, %148
  %162 = load i16, ptr %8, align 2
  %163 = zext i16 %162 to i32
  %164 = and i32 %163, 2048
  %165 = icmp ne i32 %164, 0
  br i1 %165, label %166, label %174

166:                                              ; preds = %161
  %167 = load ptr, ptr %5, align 8
  %168 = load i32, ptr @hf_afp_dir_GroupID, align 4
  %169 = load ptr, ptr %6, align 8
  %170 = load i32, ptr %7, align 4
  %171 = call ptr @proto_tree_add_item(ptr noundef %167, i32 noundef %168, ptr noundef %169, i32 noundef %170, i32 noundef 4, i32 noundef 0)
  %172 = load i32, ptr %7, align 4
  %173 = add i32 %172, 4
  store i32 %173, ptr %7, align 4
  br label %174

174:                                              ; preds = %166, %161
  %175 = load i16, ptr %8, align 2
  %176 = zext i16 %175 to i32
  %177 = and i32 %176, 4096
  %178 = icmp ne i32 %177, 0
  br i1 %178, label %179, label %186

179:                                              ; preds = %174
  %180 = load ptr, ptr %5, align 8
  %181 = load ptr, ptr %6, align 8
  %182 = load i32, ptr @hf_afp_dir_ar, align 4
  %183 = load i32, ptr %7, align 4
  call void @decode_access_rights(ptr noundef %180, ptr noundef %181, i32 noundef %182, i32 noundef %183)
  %184 = load i32, ptr %7, align 4
  %185 = add i32 %184, 4
  store i32 %185, ptr %7, align 4
  br label %186

186:                                              ; preds = %179, %174
  %187 = load i16, ptr %8, align 2
  %188 = zext i16 %187 to i32
  %189 = and i32 %188, 8192
  %190 = icmp ne i32 %189, 0
  br i1 %190, label %191, label %208

191:                                              ; preds = %186
  call void @llvm.lifetime.start.p0(i64 4, ptr %12) #8
  %192 = load ptr, ptr %5, align 8
  %193 = load ptr, ptr %6, align 8
  %194 = load i32, ptr %7, align 4
  %195 = load i32, ptr %10, align 4
  %196 = call i32 @parse_UTF8_filename(ptr noundef %192, ptr noundef %193, i32 noundef %194, i32 noundef %195)
  store i32 %196, ptr %12, align 4
  %197 = load i32, ptr %12, align 4
  %198 = load i32, ptr %9, align 4
  %199 = icmp sgt i32 %197, %198
  br i1 %199, label %200, label %202

200:                                              ; preds = %191
  %201 = load i32, ptr %12, align 4
  br label %204

202:                                              ; preds = %191
  %203 = load i32, ptr %9, align 4
  br label %204

204:                                              ; preds = %202, %200
  %205 = phi i32 [ %201, %200 ], [ %203, %202 ]
  store i32 %205, ptr %9, align 4
  %206 = load i32, ptr %7, align 4
  %207 = add i32 %206, 6
  store i32 %207, ptr %7, align 4
  call void @llvm.lifetime.end.p0(i64 4, ptr %12) #8
  br label %208

208:                                              ; preds = %204, %186
  %209 = load i16, ptr %8, align 2
  %210 = zext i16 %209 to i32
  %211 = and i32 %210, 32768
  %212 = icmp ne i32 %211, 0
  br i1 %212, label %213, label %219

213:                                              ; preds = %208
  %214 = load ptr, ptr %5, align 8
  %215 = load ptr, ptr %6, align 8
  %216 = load i32, ptr %7, align 4
  call void @decode_unix_privs(ptr noundef %214, ptr noundef %215, i32 noundef %216)
  %217 = load i32, ptr %7, align 4
  %218 = add i32 %217, 16
  store i32 %218, ptr %7, align 4
  br label %219

219:                                              ; preds = %213, %208
  %220 = load i32, ptr %9, align 4
  %221 = icmp ne i32 %220, 0
  br i1 %221, label %222, label %224

222:                                              ; preds = %219
  %223 = load i32, ptr %9, align 4
  br label %226

224:                                              ; preds = %219
  %225 = load i32, ptr %7, align 4
  br label %226

226:                                              ; preds = %224, %222
  %227 = phi i32 [ %223, %222 ], [ %225, %224 ]
  call void @llvm.lifetime.end.p0(i64 4, ptr %10) #8
  call void @llvm.lifetime.end.p0(i64 4, ptr %9) #8
  ret i32 %227
}