; Function Attrs: null_pointer_is_valid sspstrong uwtable
define internal fastcc i32 @parse_dir_bitmap(ptr noundef %0, ptr noundef %1, i32 noundef %2, i16 noundef zeroext %3) unnamed_addr #1 {
  %5 = alloca %struct.nstime_t, align 8
  %6 = alloca %struct.nstime_t, align 8
  %7 = alloca %struct.nstime_t, align 8
  %8 = zext i16 %3 to i32
  %9 = and i32 %8, 1
  %.not = icmp eq i32 %9, 0
  br i1 %.not, label %16, label %10

10:                                               ; preds = %4
  %11 = load i32, ptr @hf_afp_dir_attribute, align 4
  %12 = load i32, ptr @ett_afp_dir_attribute, align 4
  %13 = tail call ptr @proto_tree_add_bitmask(ptr noundef %0, ptr noundef %1, i32 noundef %2, i32 noundef %11, i32 noundef %12, ptr noundef nonnull @decode_dir_attribute.attributes, i32 noundef 0)
  %14 = tail call zeroext i16 @tvb_get_ntohs(ptr noundef %1, i32 noundef %2)
  %15 = add i32 %2, 2
  br label %16

16:                                               ; preds = %10, %4
  %.0 = phi i32 [ %15, %10 ], [ %2, %4 ]
  %17 = and i32 %8, 2
  %.not90 = icmp eq i32 %17, 0
  br i1 %.not90, label %22, label %18

18:                                               ; preds = %16
  %19 = load i32, ptr @hf_afp_did, align 4
  %20 = tail call ptr @proto_tree_add_item(ptr noundef %0, i32 noundef %19, ptr noundef %1, i32 noundef %.0, i32 noundef 4, i32 noundef 0)
  %21 = add i32 %.0, 4
  br label %22

22:                                               ; preds = %18, %16
  %.1 = phi i32 [ %21, %18 ], [ %.0, %16 ]
  %23 = and i32 %8, 4
  %.not91 = icmp eq i32 %23, 0
  br i1 %.not91, label %32, label %24

24:                                               ; preds = %22
  %25 = load i32, ptr @hf_afp_creation_date, align 4
  %26 = tail call i32 @tvb_get_ntohl(ptr noundef %1, i32 noundef %.1)
  %27 = zext i32 %26 to i64
  call void @llvm.lifetime.start.p0(i64 16, ptr nonnull %7) #8
  %28 = add nuw nsw i64 %27, 946684800
  store i64 %28, ptr %7, align 8
  %29 = getelementptr inbounds nuw i8, ptr %7, i64 8
  store i32 0, ptr %29, align 8
  %30 = call ptr @proto_tree_add_time(ptr noundef %0, i32 noundef %25, ptr noundef %1, i32 noundef %.1, i32 noundef 4, ptr noundef nonnull %7)
  call void @llvm.lifetime.end.p0(i64 16, ptr nonnull %7) #8
  %31 = add i32 %.1, 4
  br label %32

32:                                               ; preds = %24, %22
  %.2 = phi i32 [ %31, %24 ], [ %.1, %22 ]
  %33 = and i32 %8, 8
  %.not92 = icmp eq i32 %33, 0
  br i1 %.not92, label %42, label %34

34:                                               ; preds = %32
  %35 = load i32, ptr @hf_afp_modification_date, align 4
  %36 = call i32 @tvb_get_ntohl(ptr noundef %1, i32 noundef %.2)
  %37 = zext i32 %36 to i64
  call void @llvm.lifetime.start.p0(i64 16, ptr nonnull %6) #8
  %38 = add nuw nsw i64 %37, 946684800
  store i64 %38, ptr %6, align 8
  %39 = getelementptr inbounds nuw i8, ptr %6, i64 8
  store i32 0, ptr %39, align 8
  %40 = call ptr @proto_tree_add_time(ptr noundef %0, i32 noundef %35, ptr noundef %1, i32 noundef %.2, i32 noundef 4, ptr noundef nonnull %6)
  call void @llvm.lifetime.end.p0(i64 16, ptr nonnull %6) #8
  %41 = add i32 %.2, 4
  br label %42

42:                                               ; preds = %34, %32
  %.3 = phi i32 [ %41, %34 ], [ %.2, %32 ]
  %43 = and i32 %8, 16
  %.not93 = icmp eq i32 %43, 0
  br i1 %.not93, label %52, label %44

44:                                               ; preds = %42
  %45 = load i32, ptr @hf_afp_backup_date, align 4
  %46 = call i32 @tvb_get_ntohl(ptr noundef %1, i32 noundef %.3)
  %47 = zext i32 %46 to i64
  call void @llvm.lifetime.start.p0(i64 16, ptr nonnull %5) #8
  %48 = add nuw nsw i64 %47, 946684800
  store i64 %48, ptr %5, align 8
  %49 = getelementptr inbounds nuw i8, ptr %5, i64 8
  store i32 0, ptr %49, align 8
  %50 = call ptr @proto_tree_add_time(ptr noundef %0, i32 noundef %45, ptr noundef %1, i32 noundef %.3, i32 noundef 4, ptr noundef nonnull %5)
  call void @llvm.lifetime.end.p0(i64 16, ptr nonnull %5) #8
  %51 = add i32 %.3, 4
  br label %52

52:                                               ; preds = %44, %42
  %.4 = phi i32 [ %51, %44 ], [ %.3, %42 ]
  %53 = and i32 %8, 32
  %.not94 = icmp eq i32 %53, 0
  br i1 %.not94, label %58, label %54

54:                                               ; preds = %52
  %55 = load i32, ptr @hf_afp_finder_info, align 4
  %56 = call ptr @proto_tree_add_item(ptr noundef %0, i32 noundef %55, ptr noundef %1, i32 noundef %.4, i32 noundef 32, i32 noundef 0)
  %57 = add i32 %.4, 32
  br label %58

58:                                               ; preds = %54, %52
  %.5 = phi i32 [ %57, %54 ], [ %.4, %52 ]
  %59 = and i32 %8, 64
  %.not95 = icmp eq i32 %59, 0
  br i1 %.not95, label %64, label %60

60:                                               ; preds = %58
  %61 = call fastcc i32 @parse_long_filename(ptr noundef %0, ptr noundef %1, i32 noundef %.5, i32 noundef %2)
  %62 = call i32 @llvm.smax.i32(i32 %61, i32 0)
  %63 = add i32 %.5, 2
  br label %64

64:                                               ; preds = %60, %58
  %.088 = phi i32 [ %62, %60 ], [ 0, %58 ]
  %.6 = phi i32 [ %63, %60 ], [ %.5, %58 ]
  %65 = and i32 %8, 128
  %.not96 = icmp eq i32 %65, 0
  br i1 %.not96, label %70, label %66

66:                                               ; preds = %64
  %67 = load i32, ptr @hf_afp_short_name_offset, align 4
  %68 = call ptr @proto_tree_add_item(ptr noundef %0, i32 noundef %67, ptr noundef %1, i32 noundef %.6, i32 noundef 2, i32 noundef 0)
  %69 = add i32 %.6, 2
  br label %70

70:                                               ; preds = %66, %64
  %.7 = phi i32 [ %69, %66 ], [ %.6, %64 ]
  %71 = and i32 %8, 256
  %.not97 = icmp eq i32 %71, 0
  br i1 %.not97, label %76, label %72

72:                                               ; preds = %70
  %73 = load i32, ptr @hf_afp_file_id, align 4
  %74 = call ptr @proto_tree_add_item(ptr noundef %0, i32 noundef %73, ptr noundef %1, i32 noundef %.7, i32 noundef 4, i32 noundef 0)
  %75 = add i32 %.7, 4
  br label %76

76:                                               ; preds = %72, %70
  %.8 = phi i32 [ %75, %72 ], [ %.7, %70 ]
  %77 = and i32 %8, 512
  %.not98 = icmp eq i32 %77, 0
  br i1 %.not98, label %82, label %78

78:                                               ; preds = %76
  %79 = load i32, ptr @hf_afp_dir_offspring, align 4
  %80 = call ptr @proto_tree_add_item(ptr noundef %0, i32 noundef %79, ptr noundef %1, i32 noundef %.8, i32 noundef 2, i32 noundef 0)
  %81 = add i32 %.8, 2
  br label %82

82:                                               ; preds = %78, %76
  %.9 = phi i32 [ %81, %78 ], [ %.8, %76 ]
  %83 = and i32 %8, 1024
  %.not99 = icmp eq i32 %83, 0
  br i1 %.not99, label %88, label %84

84:                                               ; preds = %82
  %85 = load i32, ptr @hf_afp_dir_OwnerID, align 4
  %86 = call ptr @proto_tree_add_item(ptr noundef %0, i32 noundef %85, ptr noundef %1, i32 noundef %.9, i32 noundef 4, i32 noundef 0)
  %87 = add i32 %.9, 4
  br label %88

88:                                               ; preds = %84, %82
  %.10 = phi i32 [ %87, %84 ], [ %.9, %82 ]
  %89 = and i32 %8, 2048
  %.not100 = icmp eq i32 %89, 0
  br i1 %.not100, label %94, label %90

90:                                               ; preds = %88
  %91 = load i32, ptr @hf_afp_dir_GroupID, align 4
  %92 = call ptr @proto_tree_add_item(ptr noundef %0, i32 noundef %91, ptr noundef %1, i32 noundef %.10, i32 noundef 4, i32 noundef 0)
  %93 = add i32 %.10, 4
  br label %94

94:                                               ; preds = %90, %88
  %.11 = phi i32 [ %93, %90 ], [ %.10, %88 ]
  %95 = and i32 %8, 4096
  %.not101 = icmp eq i32 %95, 0
  br i1 %.not101, label %101, label %96

96:                                               ; preds = %94
  %97 = load i32, ptr @hf_afp_dir_ar, align 4
  %98 = load i32, ptr @ett_afp_dir_ar, align 4
  %99 = call ptr @proto_tree_add_bitmask(ptr noundef %0, ptr noundef %1, i32 noundef %.11, i32 noundef %97, i32 noundef %98, ptr noundef nonnull @decode_access_rights.rights, i32 noundef 0)
  %100 = add i32 %.11, 4
  br label %101

101:                                              ; preds = %96, %94
  %.12 = phi i32 [ %100, %96 ], [ %.11, %94 ]
  %102 = and i32 %8, 8192
  %.not102 = icmp eq i32 %102, 0
  br i1 %.not102, label %107, label %103

103:                                              ; preds = %101
  %104 = call fastcc i32 @parse_UTF8_filename(ptr noundef %0, ptr noundef %1, i32 noundef %.12, i32 noundef %2)
  %105 = call i32 @llvm.smax.i32(i32 %104, i32 %.088)
  %106 = add i32 %.12, 6
  br label %107

107:                                              ; preds = %103, %101
  %.189 = phi i32 [ %105, %103 ], [ %.088, %101 ]
  %.13 = phi i32 [ %106, %103 ], [ %.12, %101 ]
  %.not103 = icmp sgt i16 %3, -1
  br i1 %.not103, label %110, label %108

108:                                              ; preds = %107
  call fastcc void @decode_unix_privs(ptr noundef %0, ptr noundef %1, i32 noundef %.13)
  %109 = add i32 %.13, 16
  br label %110

110:                                              ; preds = %108, %107
  %.14 = phi i32 [ %109, %108 ], [ %.13, %107 ]
  %.not104 = icmp eq i32 %.189, 0
  %111 = select i1 %.not104, i32 %.14, i32 %.189
  ret i32 %111
}